; ModuleID = 'bench/libphonenumber/original/default_map_storage.ll'
source_filename = "bench/libphonenumber/original/default_map_storage.ll"
target datalayout = "e-m:e-p270:32:32-p271:32:32-p272:64:64-i64:64-i128:128-f80:128-n8:16:32:64-S128"
target triple = "x86_64-pc-linux-gnu"

@_ZTVN4i18n12phonenumbers17DefaultMapStorageE = dso_local unnamed_addr constant { [4 x ptr] } { [4 x ptr] [ptr null, ptr @_ZTIN4i18n12phonenumbers17DefaultMapStorageE, ptr @_ZN4i18n12phonenumbers17DefaultMapStorageD2Ev, ptr @_ZN4i18n12phonenumbers17DefaultMapStorageD0Ev] }, align 8
@_ZTIN4i18n12phonenumbers17DefaultMapStorageE = dso_local constant { ptr, ptr } { ptr getelementptr inbounds (ptr, ptr @_ZTVN10__cxxabiv117__class_type_infoE, i64 2), ptr @_ZTSN4i18n12phonenumbers17DefaultMapStorageE }, align 8
@_ZTVN10__cxxabiv117__class_type_infoE = external global [0 x ptr]
@_ZTSN4i18n12phonenumbers17DefaultMapStorageE = dso_local constant [41 x i8] c"N4i18n12phonenumbers17DefaultMapStorageE\00", align 1

@_ZN4i18n12phonenumbers17DefaultMapStorageC1Ev = dso_local unnamed_addr alias void (ptr), ptr @_ZN4i18n12phonenumbers17DefaultMapStorageC2Ev
@_ZN4i18n12phonenumbers17DefaultMapStorageD1Ev = dso_local unnamed_addr alias void (ptr), ptr @_ZN4i18n12phonenumbers17DefaultMapStorageD2Ev

; Function Attrs: mustprogress nofree norecurse nosync nounwind willreturn memory(argmem: write) uwtable
define dso_local void @_ZN4i18n12phonenumbers17DefaultMapStorageC2Ev(ptr noundef nonnull writeonly align 8 captures(none) dereferenceable(44) initializes((0, 8)) %0) unnamed_addr #0 align 2 {
  store ptr getelementptr inbounds nuw inrange(-16, 16) (i8, ptr @_ZTVN4i18n12phonenumbers17DefaultMapStorageE, i64 16), ptr %0, align 8, !tbaa !4
  ret void
}

; Function Attrs: mustprogress nofree norecurse nosync nounwind willreturn memory(none) uwtable
define dso_local void @_ZN4i18n12phonenumbers17DefaultMapStorageD2Ev(ptr nonnull readnone align 8 captures(none) %0) unnamed_addr #1 align 2 {
  ret void
}

; Function Attrs: mustprogress nounwind uwtable
define dso_local void @_ZN4i18n12phonenumbers17DefaultMapStorageD0Ev(ptr noundef nonnull align 8 dereferenceable(44) %0) unnamed_addr #2 align 2 {
  tail call void @_ZdlPvm(ptr noundef nonnull %0, i64 noundef 48) #7
  ret void
}

; Function Attrs: nobuiltin nounwind
declare void @_ZdlPvm(ptr noundef, i64 noundef) local_unnamed_addr #3

; Function Attrs: mustprogress nofree norecurse nosync nounwind willreturn memory(read, inaccessiblemem: none) uwtable
define dso_local noundef i32 @_ZNK4i18n12phonenumbers17DefaultMapStorage9GetPrefixEi(ptr noundef nonnull readonly align 8 captures(none) dereferenceable(44) %0, i32 noundef %1) local_unnamed_addr #4 align 2 {
  %3 = getelementptr inbounds nuw i8, ptr %0, i64 8
  %4 = load ptr, ptr %3, align 8, !tbaa !7
  %5 = sext i32 %1 to i64
  %6 = getelementptr inbounds i32, ptr %4, i64 %5
  %7 = load i32, ptr %6, align 4, !tbaa !15
  ret i32 %7
}

; Function Attrs: mustprogress nofree norecurse nosync nounwind willreturn memory(read, inaccessiblemem: none) uwtable
define dso_local noundef ptr @_ZNK4i18n12phonenumbers17DefaultMapStorage14GetDescriptionEi(ptr noundef nonnull readonly align 8 captures(none) dereferenceable(44) %0, i32 noundef %1) local_unnamed_addr #4 align 2 {
  %3 = getelementptr inbounds nuw i8, ptr %0, i64 24
  %4 = load ptr, ptr %3, align 8, !tbaa !16
  %5 = sext i32 %1 to i64
  %6 = getelementptr inbounds ptr, ptr %4, i64 %5
  %7 = load ptr, ptr %6, align 8, !tbaa !17
  ret ptr %7
}

; Function Attrs: mustprogress nofree norecurse nosync nounwind willreturn memory(argmem: readwrite) uwtable
define dso_local void @_ZN4i18n12phonenumbers17DefaultMapStorage11ReadFromMapEPKNS0_18PrefixDescriptionsE(ptr noundef nonnull writeonly align 8 captures(none) dereferenceable(44) initializes((8, 20), (24, 44)) %0, ptr noundef readonly captures(none) %1) local_unnamed_addr #5 align 2 {
  %3 = load ptr, ptr %1, align 8, !tbaa !19
  %4 = getelementptr inbounds nuw i8, ptr %0, i64 8
  store ptr %3, ptr %4, align 8, !tbaa !7
  %5 = getelementptr inbounds nuw i8, ptr %1, i64 8
  %6 = load i32, ptr %5, align 8, !tbaa !21
  %7 = getelementptr inbounds nuw i8, ptr %0, i64 16
  store i32 %6, ptr %7, align 8, !tbaa !22
  %8 = getelementptr inbounds nuw i8, ptr %1, i64 16
  %9 = load ptr, ptr %8, align 8, !tbaa !23
  %10 = getelementptr inbounds nuw i8, ptr %0, i64 24
  store ptr %9, ptr %10, align 8, !tbaa !16
  %11 = getelementptr inbounds nuw i8, ptr %1, i64 24
  %12 = load ptr, ptr %11, align 8, !tbaa !24
  %13 = getelementptr inbounds nuw i8, ptr %0, i64 32
  store ptr %12, ptr %13, align 8, !tbaa !25
  %14 = getelementptr inbounds nuw i8, ptr %1, i64 32
  %15 = load i32, ptr %14, align 8, !tbaa !26
  %16 = getelementptr inbounds nuw i8, ptr %0, i64 40
  store i32 %15, ptr %16, align 8, !tbaa !27
  ret void
}

; Function Attrs: mustprogress nofree norecurse nosync nounwind willreturn memory(argmem: read) uwtable
define dso_local noundef i32 @_ZNK4i18n12phonenumbers17DefaultMapStorage15GetNumOfEntriesEv(ptr noundef nonnull readonly align 8 captures(none) dereferenceable(44) %0) local_unnamed_addr #6 align 2 {
  %2 = getelementptr inbounds nuw i8, ptr %0, i64 16
  %3 = load i32, ptr %2, align 8, !tbaa !22
  ret i32 %3
}

; Function Attrs: mustprogress nofree norecurse nosync nounwind willreturn memory(argmem: read) uwtable
define dso_local noundef ptr @_ZNK4i18n12phonenumbers17DefaultMapStorage18GetPossibleLengthsEv(ptr noundef nonnull readonly align 8 captures(none) dereferenceable(44) %0) local_unnamed_addr #6 align 2 {
  %2 = getelementptr inbounds nuw i8, ptr %0, i64 32
  %3 = load ptr, ptr %2, align 8, !tbaa !25
  ret ptr %3
}

; Function Attrs: mustprogress nofree norecurse nosync nounwind willreturn memory(argmem: read) uwtable
define dso_local noundef i32 @_ZNK4i18n12phonenumbers17DefaultMapStorage22GetPossibleLengthsSizeEv(ptr noundef nonnull readonly align 8 captures(none) dereferenceable(44) %0) local_unnamed_addr #6 align 2 {
  %2 = getelementptr inbounds nuw i8, ptr %0, i64 40
  %3 = load i32, ptr %2, align 8, !tbaa !27
  ret i32 %3
}


!llvm.module.flags = !{!0, !1, !2, !3}

!0 = !{i32 1, !"wchar_size", i32 4}
!1 = !{i32 8, !"PIC Level", i32 2}
!2 = !{i32 7, !"PIE Level", i32 2}
!3 = !{i32 7, !"uwtable", i32 2}
!4 = !{!5, !5, i64 0}
!5 = !{!"vtable pointer", !6, i64 0}
!6 = !{!"Simple C++ TBAA"}
!7 = !{!8, !9, i64 8}
!8 = !{!"_ZTSN4i18n12phonenumbers17DefaultMapStorageE", !9, i64 8, !12, i64 16, !13, i64 24, !9, i64 32, !12, i64 40}
!9 = !{!"p1 int", !10, i64 0}
!10 = !{!"any pointer", !11, i64 0}
!11 = !{!"omnipotent char", !6, i64 0}
!12 = !{!"int", !11, i64 0}
!13 = !{!"p2 omnipotent char", !14, i64 0}
!14 = !{!"any p2 pointer", !10, i64 0}
!15 = !{!12, !12, i64 0}
!16 = !{!8, !13, i64 24}
!17 = !{!18, !18, i64 0}
!18 = !{!"p1 omnipotent char", !10, i64 0}
!19 = !{!20, !9, i64 0}
!20 = !{!"_ZTSN4i18n12phonenumbers18PrefixDescriptionsE", !9, i64 0, !12, i64 8, !13, i64 16, !9, i64 24, !12, i64 32}
!21 = !{!20, !12, i64 8}
!22 = !{!8, !12, i64 16}
!23 = !{!20, !13, i64 16}
!24 = !{!20, !9, i64 24}
!25 = !{!8, !9, i64 32}
!26 = !{!20, !12, i64 32}
!27 = !{!8, !12, i64 40}
